target datalayout = "e-m:e-p270:32:32-p271:32:32-p272:64:64-i64:64-i128:128-f80:128-n8:16:32:64-S128"
target triple = "x86_64-pc-linux-gnu"

%struct.AVFilterContext = type { ptr, ptr, ptr, ptr, ptr, i32, ptr, ptr, i32, ptr, ptr, i32, i32, ptr, ptr, ptr, ptr, i32, ptr, i32, i32 }
%struct.VibratoContext = type { ptr, double, double, i32, ptr, i32, i32, ptr, i32, i32 }
%struct.AVFilterLink = type { ptr, ptr, ptr, ptr, i32, i32, i32, i32, %struct.AVRational, i32, i32, i32, %struct.AVChannelLayout, %struct.AVRational, ptr, i32, %struct.AVFilterFormatsConfig, %struct.AVFilterFormatsConfig }
%struct.AVChannelLayout = type { i32, i32, %union.anon.1, ptr }
%union.anon.1 = type { i64 }
%struct.AVRational = type { i32, i32 }
%struct.AVFilterFormatsConfig = type { ptr, ptr, ptr, ptr, ptr }

; Function Attrs: nounwind uwtable
define internal i32 @config_input(ptr noundef %0) #1 {
  %2 = alloca i32, align 4
  %3 = alloca ptr, align 8
  %4 = alloca i32, align 4
  %5 = alloca ptr, align 8
  %6 = alloca ptr, align 8
  %7 = alloca i32, align 4
  store ptr %0, ptr %3, align 8, !tbaa !32
  call void @llvm.lifetime.start.p0(i64 4, ptr %4) #5
  call void @llvm.lifetime.start.p0(i64 8, ptr %5) #5
  %8 = load ptr, ptr %3, align 8, !tbaa !32
  %9 = getelementptr inbounds nuw %struct.AVFilterLink, ptr %8, i32 0, i32 2
  %10 = load ptr, ptr %9, align 8, !tbaa !36
  store ptr %10, ptr %5, align 8, !tbaa !4
  call void @llvm.lifetime.start.p0(i64 8, ptr %6) #5
  %11 = load ptr, ptr %5, align 8, !tbaa !4
  %12 = getelementptr inbounds nuw %struct.AVFilterContext, ptr %11, i32 0, i32 9
  %13 = load ptr, ptr %12, align 8, !tbaa !9
  store ptr %13, ptr %6, align 8, !tbaa !22
  %14 = load ptr, ptr %3, align 8, !tbaa !32
  %15 = getelementptr inbounds nuw %struct.AVFilterLink, ptr %14, i32 0, i32 12
  %16 = getelementptr inbounds nuw %struct.AVChannelLayout, ptr %15, i32 0, i32 1
  %17 = load i32, ptr %16, align 4, !tbaa !63
  %18 = sext i32 %17 to i64
  %19 = call noalias ptr @av_calloc(i64 noundef %18, i64 noundef 8)
  %20 = load ptr, ptr %6, align 8, !tbaa !22
  %21 = getelementptr inbounds nuw %struct.VibratoContext, ptr %20, i32 0, i32 4
  store ptr %19, ptr %21, align 8, !tbaa !29
  %22 = load ptr, ptr %6, align 8, !tbaa !22
  %23 = getelementptr inbounds nuw %struct.VibratoContext, ptr %22, i32 0, i32 4
  %24 = load ptr, ptr %23, align 8, !tbaa !29
  %25 = icmp ne ptr %24, null
  br i1 %25, label %27, label %26

26:                                               ; preds = %1
  store i32 -12, ptr %2, align 4
  store i32 1, ptr %7, align 4
  br label %116

27:                                               ; preds = %1
  %28 = load ptr, ptr %3, align 8, !tbaa !32
  %29 = getelementptr inbounds nuw %struct.AVFilterLink, ptr %28, i32 0, i32 12
  %30 = getelementptr inbounds nuw %struct.AVChannelLayout, ptr %29, i32 0, i32 1
  %31 = load i32, ptr %30, align 4, !tbaa !63
  %32 = load ptr, ptr %6, align 8, !tbaa !22
  %33 = getelementptr inbounds nuw %struct.VibratoContext, ptr %32, i32 0, i32 3
  store i32 %31, ptr %33, align 8, !tbaa !25
  %34 = load ptr, ptr %3, align 8, !tbaa !32
  %35 = getelementptr inbounds nuw %struct.AVFilterLink, ptr %34, i32 0, i32 11
  %36 = load i32, ptr %35, align 8, !tbaa !64
  %37 = sitofp i32 %36 to double
  %38 = call nsz double @llvm.fmuladd.f64(double %37, double 5.000000e-03, double 5.000000e-01)
  %39 = call i64 @llvm.lrint.i64.f64(double %38)
  %40 = trunc i64 %39 to i32
  %41 = load ptr, ptr %6, align 8, !tbaa !22
  %42 = getelementptr inbounds nuw %struct.VibratoContext, ptr %41, i32 0, i32 6
  store i32 %40, ptr %42, align 4, !tbaa !48
  store i32 0, ptr %4, align 4, !tbaa !24
  br label %43

43:                                               ; preds = %71, %27
  %44 = load i32, ptr %4, align 4, !tbaa !24
  %45 = load ptr, ptr %6, align 8, !tbaa !22
  %46 = getelementptr inbounds nuw %struct.VibratoContext, ptr %45, i32 0, i32 3
  %47 = load i32, ptr %46, align 8, !tbaa !25
  %48 = icmp slt i32 %44, %47
  br i1 %48, label %49, label %74

49:                                               ; preds = %43
  %50 = load ptr, ptr %6, align 8, !tbaa !22
  %51 = getelementptr inbounds nuw %struct.VibratoContext, ptr %50, i32 0, i32 6
  %52 = load i32, ptr %51, align 4, !tbaa !48
  %53 = sext i32 %52 to i64
  %54 = call ptr @av_malloc_array(i64 noundef %53, i64 noundef 8)
  %55 = load ptr, ptr %6, align 8, !tbaa !22
  %56 = getelementptr inbounds nuw %struct.VibratoContext, ptr %55, i32 0, i32 4
  %57 = load ptr, ptr %56, align 8, !tbaa !29
  %58 = load i32, ptr %4, align 4, !tbaa !24
  %59 = sext i32 %58 to i64
  %60 = getelementptr inbounds ptr, ptr %57, i64 %59
  store ptr %54, ptr %60, align 8, !tbaa !46
  %61 = load ptr, ptr %6, align 8, !tbaa !22
  %62 = getelementptr inbounds nuw %struct.VibratoContext, ptr %61, i32 0, i32 4
  %63 = load ptr, ptr %62, align 8, !tbaa !29
  %64 = load i32, ptr %4, align 4, !tbaa !24
  %65 = sext i32 %64 to i64
  %66 = getelementptr inbounds ptr, ptr %63, i64 %65
  %67 = load ptr, ptr %66, align 8, !tbaa !46
  %68 = icmp ne ptr %67, null
  br i1 %68, label %70, label %69

69:                                               ; preds = %49
  store i32 -12, ptr %2, align 4
  store i32 1, ptr %7, align 4
  br label %116

70:                                               ; preds = %49
  br label %71

71:                                               ; preds = %70
  %72 = load i32, ptr %4, align 4, !tbaa !24
  %73 = add nsw i32 %72, 1
  store i32 %73, ptr %4, align 4, !tbaa !24
  br label %43, !llvm.loop !65

74:                                               ; preds = %43
  %75 = load ptr, ptr %6, align 8, !tbaa !22
  %76 = getelementptr inbounds nuw %struct.VibratoContext, ptr %75, i32 0, i32 5
  store i32 0, ptr %76, align 8, !tbaa !52
  %77 = load ptr, ptr %3, align 8, !tbaa !32
  %78 = getelementptr inbounds nuw %struct.AVFilterLink, ptr %77, i32 0, i32 11
  %79 = load i32, ptr %78, align 8, !tbaa !64
  %80 = sitofp i32 %79 to double
  %81 = load ptr, ptr %6, align 8, !tbaa !22
  %82 = getelementptr inbounds nuw %struct.VibratoContext, ptr %81, i32 0, i32 1
  %83 = load double, ptr %82, align 8, !tbaa !66
  %84 = fdiv nsz double %80, %83
  %85 = fadd nsz double %84, 5.000000e-01
  %86 = call i64 @llvm.lrint.i64.f64(double %85)
  %87 = trunc i64 %86 to i32
  %88 = load ptr, ptr %6, align 8, !tbaa !22
  %89 = getelementptr inbounds nuw %struct.VibratoContext, ptr %88, i32 0, i32 9
  store i32 %87, ptr %89, align 4, !tbaa !44
  %90 = load ptr, ptr %6, align 8, !tbaa !22
  %91 = getelementptr inbounds nuw %struct.VibratoContext, ptr %90, i32 0, i32 9
  %92 = load i32, ptr %91, align 4, !tbaa !44
  %93 = sext i32 %92 to i64
  %94 = call ptr @av_malloc_array(i64 noundef %93, i64 noundef 8)
  %95 = load ptr, ptr %6, align 8, !tbaa !22
  %96 = getelementptr inbounds nuw %struct.VibratoContext, ptr %95, i32 0, i32 7
  store ptr %94, ptr %96, align 8, !tbaa !45
  %97 = load ptr, ptr %6, align 8, !tbaa !22
  %98 = getelementptr inbounds nuw %struct.VibratoContext, ptr %97, i32 0, i32 7
  %99 = load ptr, ptr %98, align 8, !tbaa !45
  %100 = icmp ne ptr %99, null
  br i1 %100, label %102, label %101

101:                                              ; preds = %74
  store i32 -12, ptr %2, align 4
  store i32 1, ptr %7, align 4
  br label %116

102:                                              ; preds = %74
  %103 = load ptr, ptr %6, align 8, !tbaa !22
  %104 = getelementptr inbounds nuw %struct.VibratoContext, ptr %103, i32 0, i32 7
  %105 = load ptr, ptr %104, align 8, !tbaa !45
  %106 = load ptr, ptr %6, align 8, !tbaa !22
  %107 = getelementptr inbounds nuw %struct.VibratoContext, ptr %106, i32 0, i32 9
  %108 = load i32, ptr %107, align 4, !tbaa !44
  %109 = load ptr, ptr %6, align 8, !tbaa !22
  %110 = getelementptr inbounds nuw %struct.VibratoContext, ptr %109, i32 0, i32 6
  %111 = load i32, ptr %110, align 4, !tbaa !48
  %112 = sub nsw i32 %111, 1
  %113 = sitofp i32 %112 to double
  call void @ff_generate_wave_table(i32 noundef 0, i32 noundef 4, ptr noundef %105, i32 noundef %108, double noundef 0.000000e+00, double noundef %113, double noundef 0x4012D97C7F3321D2)
  %114 = load ptr, ptr %6, align 8, !tbaa !22
  %115 = getelementptr inbounds nuw %struct.VibratoContext, ptr %114, i32 0, i32 8
  store i32 0, ptr %115, align 8, !tbaa !51
  store i32 0, ptr %2, align 4
  store i32 1, ptr %7, align 4
  br label %116

116:                                              ; preds = %102, %101, %69, %26
  call void @llvm.lifetime.end.p0(i64 8, ptr %6) #5
  call void @llvm.lifetime.end.p0(i64 8, ptr %5) #5
  call void @llvm.lifetime.end.p0(i64 4, ptr %4) #5
  %117 = load i32, ptr %2, align 4
  ret i32 %117
}