; Function Attrs: nounwind uwtable
define internal range(i32 -12, 1) i32 @config_input(ptr noundef readonly captures(none) %0) #1 {
  %2 = getelementptr inbounds nuw i8, ptr %0, i64 16
  %3 = load ptr, ptr %2, align 8, !tbaa !29
  %4 = getelementptr inbounds nuw i8, ptr %3, i64 72
  %5 = load ptr, ptr %4, align 8, !tbaa !4
  %6 = getelementptr inbounds nuw i8, ptr %0, i64 76
  %7 = load i32, ptr %6, align 4, !tbaa !59
  %8 = sext i32 %7 to i64
  %9 = tail call noalias ptr @av_calloc(i64 noundef %8, i64 noundef 8) #4
  %10 = getelementptr inbounds nuw i8, ptr %5, i64 32
  store ptr %9, ptr %10, align 8, !tbaa !24
  %.not = icmp eq ptr %9, null
  br i1 %.not, label %.loopexit, label %11

11:                                               ; preds = %1
  %12 = load i32, ptr %6, align 4, !tbaa !59
  %13 = getelementptr inbounds nuw i8, ptr %5, i64 24
  store i32 %12, ptr %13, align 8, !tbaa !20
  %14 = getelementptr inbounds nuw i8, ptr %0, i64 64
  %15 = load i32, ptr %14, align 8, !tbaa !60
  %16 = sitofp i32 %15 to double
  %17 = tail call nsz double @llvm.fmuladd.f64(double %16, double 5.000000e-03, double 5.000000e-01)
  %18 = tail call i64 @llvm.lrint.i64.f64(double %17)
  %19 = trunc i64 %18 to i32
  %20 = getelementptr inbounds nuw i8, ptr %5, i64 44
  store i32 %19, ptr %20, align 4, !tbaa !43
  %21 = icmp sgt i32 %12, 0
  br i1 %21, label %.lr.ph, label %._crit_edge

22:                                               ; preds = %.lr.ph
  %indvars.iv.next = add nuw nsw i64 %indvars.iv, 1
  %23 = load i32, ptr %13, align 8, !tbaa !20
  %24 = sext i32 %23 to i64
  %25 = icmp slt i64 %indvars.iv.next, %24
  br i1 %25, label %.lr.ph, label %._crit_edge.loopexit, !llvm.loop !61

.lr.ph:                                           ; preds = %11, %22
  %indvars.iv = phi i64 [ %indvars.iv.next, %22 ], [ 0, %11 ]
  %26 = load i32, ptr %20, align 4, !tbaa !43
  %27 = sext i32 %26 to i64
  %28 = tail call ptr @av_malloc_array(i64 noundef %27, i64 noundef 8) #4
  %29 = load ptr, ptr %10, align 8, !tbaa !24
  %30 = getelementptr inbounds nuw ptr, ptr %29, i64 %indvars.iv
  store ptr %28, ptr %30, align 8, !tbaa !56
  %.not31 = icmp eq ptr %28, null
  br i1 %.not31, label %.loopexit, label %22

._crit_edge.loopexit:                             ; preds = %22
  %.pre = load i32, ptr %14, align 8, !tbaa !60
  %.pre34 = sitofp i32 %.pre to double
  br label %._crit_edge

._crit_edge:                                      ; preds = %._crit_edge.loopexit, %11
  %.pre-phi = phi double [ %.pre34, %._crit_edge.loopexit ], [ %16, %11 ]
  %31 = getelementptr inbounds nuw i8, ptr %5, i64 40
  store i32 0, ptr %31, align 8, !tbaa !46
  %32 = getelementptr inbounds nuw i8, ptr %5, i64 8
  %33 = load double, ptr %32, align 8, !tbaa !62
  %34 = fdiv nsz double %.pre-phi, %33
  %35 = fadd nsz double %34, 5.000000e-01
  %36 = tail call i64 @llvm.lrint.i64.f64(double %35)
  %37 = trunc i64 %36 to i32
  %38 = getelementptr inbounds nuw i8, ptr %5, i64 60
  store i32 %37, ptr %38, align 4, !tbaa !38
  %sext = shl i64 %36, 32
  %39 = ashr exact i64 %sext, 32
  %40 = tail call ptr @av_malloc_array(i64 noundef %39, i64 noundef 8) #4
  %41 = getelementptr inbounds nuw i8, ptr %5, i64 48
  store ptr %40, ptr %41, align 8, !tbaa !39
  %.not30 = icmp eq ptr %40, null
  br i1 %.not30, label %.loopexit, label %42

42:                                               ; preds = %._crit_edge
  %43 = load i32, ptr %38, align 4, !tbaa !38
  %44 = load i32, ptr %20, align 4, !tbaa !43
  %45 = add nsw i32 %44, -1
  %46 = sitofp i32 %45 to double
  tail call void @ff_generate_wave_table(i32 noundef 0, i32 noundef 4, ptr noundef nonnull %40, i32 noundef %43, double noundef 0.000000e+00, double noundef %46, double noundef 0x4012D97C7F3321D2) #4
  %47 = getelementptr inbounds nuw i8, ptr %5, i64 56
  store i32 0, ptr %47, align 8, !tbaa !45
  br label %.loopexit

.loopexit:                                        ; preds = %.lr.ph, %._crit_edge, %1, %42
  %.0 = phi i32 [ 0, %42 ], [ -12, %1 ], [ -12, %._crit_edge ], [ -12, %.lr.ph ]
  ret i32 %.0
}